target datalayout = "e-m:e-p270:32:32-p271:32:32-p272:64:64-i64:64-i128:128-f80:128-n8:16:32:64-S128"
target triple = "x86_64-pc-linux-gnu"

%"struct.Luau::TypePath::Path" = type { %"class.std::vector" }
%"class.std::vector" = type { %"struct.std::_Vector_base" }
%"struct.std::_Vector_base" = type { %"struct.std::_Vector_base<Luau::Variant<Luau::TypePath::Property, Luau::TypePath::Index, Luau::TypePath::TypeField, Luau::TypePath::PackField, Luau::TypePath::Reduction>, std::allocator<Luau::Variant<Luau::TypePath::Property, Luau::TypePath::Index, Luau::TypePath::TypeField, Luau::TypePath::PackField, Luau::TypePath::Reduction>>>::_Vector_impl" }
%"struct.std::_Vector_base<Luau::Variant<Luau::TypePath::Property, Luau::TypePath::Index, Luau::TypePath::TypeField, Luau::TypePath::PackField, Luau::TypePath::Reduction>, std::allocator<Luau::Variant<Luau::TypePath::Property, Luau::TypePath::Index, Luau::TypePath::TypeField, Luau::TypePath::PackField, Luau::TypePath::Reduction>>>::_Vector_impl" = type { %"struct.std::_Vector_base<Luau::Variant<Luau::TypePath::Property, Luau::TypePath::Index, Luau::TypePath::TypeField, Luau::TypePath::PackField, Luau::TypePath::Reduction>, std::allocator<Luau::Variant<Luau::TypePath::Property, Luau::TypePath::Index, Luau::TypePath::TypeField, Luau::TypePath::PackField, Luau::TypePath::Reduction>>>::_Vector_impl_data" }
%"struct.std::_Vector_base<Luau::Variant<Luau::TypePath::Property, Luau::TypePath::Index, Luau::TypePath::TypeField, Luau::TypePath::PackField, Luau::TypePath::Reduction>, std::allocator<Luau::Variant<Luau::TypePath::Property, Luau::TypePath::Index, Luau::TypePath::TypeField, Luau::TypePath::PackField, Luau::TypePath::Reduction>>>::_Vector_impl_data" = type { ptr, ptr, ptr }
%"class.__gnu_cxx::__normal_iterator.3" = type { ptr }
%"class.Luau::Variant" = type { i32, [4 x i8], [40 x i8] }

; Function Attrs: mustprogress uwtable
define linkonce_odr dso_local noundef i64 @_ZN4Luau5visitIRKNS_8TypePath8PathHashEJNS1_8PropertyENS1_5IndexENS1_9TypeFieldENS1_9PackFieldENS1_9ReductionEEEEDaOT_RKNS_7VariantIJDpT0_EEE(ptr noundef nonnull align 1 dereferenceable(1) %0, ptr noundef nonnull align 8 dereferenceable(48) %1) #5 comdat {
  %3 = alloca ptr, align 8
  %4 = alloca ptr, align 8
  %5 = alloca i64, align 8
  store ptr %0, ptr %3, align 8, !tbaa !61
  store ptr %1, ptr %4, align 8, !tbaa !50
  call void @llvm.lifetime.start.p0(i64 8, ptr %5) #3
  %6 = load ptr, ptr %4, align 8, !tbaa !50
  %7 = getelementptr inbounds nuw %"class.Luau::Variant", ptr %6, i32 0, i32 0
  %8 = load i32, ptr %7, align 8, !tbaa !73
  %9 = sext i32 %8 to i64
  %10 = getelementptr inbounds [5 x ptr], ptr @_ZZN4Luau5visitIRKNS_8TypePath8PathHashEJNS1_8PropertyENS1_5IndexENS1_9TypeFieldENS1_9PackFieldENS1_9ReductionEEEEDaOT_RKNS_7VariantIJDpT0_EEEE10tableVisit_0, i64 0, i64 %9
  %11 = load ptr, ptr %10, align 8, !tbaa !65
  %12 = load ptr, ptr %3, align 8, !tbaa !61
  %13 = load ptr, ptr %4, align 8, !tbaa !50
  %14 = getelementptr inbounds nuw %"class.Luau::Variant", ptr %13, i32 0, i32 2
  call void %11(ptr noundef nonnull align 1 dereferenceable(1) %12, ptr noundef nonnull align 8 dereferenceable(8) %5, ptr noundef %14)
  %15 = load i64, ptr %5, align 8, !tbaa !49
  call void @llvm.lifetime.end.p0(i64 8, ptr %5) #3
  ret i64 %15
}

; Function Attrs: mustprogress nounwind uwtable
define linkonce_odr dso_local noundef nonnull align 8 dereferenceable(8) ptr @_ZNK9__gnu_cxx17__normal_iteratorIPKN4Luau7VariantIJNS1_8TypePath8PropertyENS3_5IndexENS3_9TypeFieldENS3_9PackFieldENS3_9ReductionEEEESt6vectorIS9_SaIS9_EEE4baseEv(ptr noundef nonnull align 8 dereferenceable(8) %0) #1 comdat align 2 {
  %2 = alloca ptr, align 8
  store ptr %0, ptr %2, align 8, !tbaa !53
  %3 = load ptr, ptr %2, align 8
  %4 = getelementptr inbounds nuw %"class.__gnu_cxx::__normal_iterator.3", ptr %3, i32 0, i32 0
  ret ptr %4
}

; Function Attrs: mustprogress nounwind uwtable
define linkonce_odr dso_local void @_ZN9__gnu_cxx17__normal_iteratorIPKN4Luau7VariantIJNS1_8TypePath8PropertyENS3_5IndexENS3_9TypeFieldENS3_9PackFieldENS3_9ReductionEEEESt6vectorIS9_SaIS9_EEEC2ERKSB_(ptr noundef nonnull align 8 dereferenceable(8) %0, ptr noundef nonnull align 8 dereferenceable(8) %1) unnamed_addr #1 comdat align 2 {
  %3 = alloca ptr, align 8
  %4 = alloca ptr, align 8
  store ptr %0, ptr %3, align 8, !tbaa !53
  store ptr %1, ptr %4, align 8, !tbaa !452
  %5 = load ptr, ptr %3, align 8
  %6 = getelementptr inbounds nuw %"class.__gnu_cxx::__normal_iterator.3", ptr %5, i32 0, i32 0
  %7 = load ptr, ptr %4, align 8, !tbaa !452
  %8 = load ptr, ptr %7, align 8, !tbaa !50
  store ptr %8, ptr %6, align 8, !tbaa !57
  ret void
}

; Function Attrs: mustprogress nounwind uwtable
define linkonce_odr dso_local noundef nonnull align 8 dereferenceable(8) ptr @_ZN9__gnu_cxx17__normal_iteratorIPKN4Luau7VariantIJNS1_8TypePath8PropertyENS3_5IndexENS3_9TypeFieldENS3_9PackFieldENS3_9ReductionEEEESt6vectorIS9_SaIS9_EEEppEv(ptr noundef nonnull align 8 dereferenceable(8) %0) #1 comdat align 2 {
  %2 = alloca ptr, align 8
  store ptr %0, ptr %2, align 8, !tbaa !53
  %3 = load ptr, ptr %2, align 8
  %4 = getelementptr inbounds nuw %"class.__gnu_cxx::__normal_iterator.3", ptr %3, i32 0, i32 0
  %5 = load ptr, ptr %4, align 8, !tbaa !57
  %6 = getelementptr inbounds nuw %"class.Luau::Variant", ptr %5, i32 1
  store ptr %6, ptr %4, align 8, !tbaa !57
  ret ptr %3
}

; Function Attrs: mustprogress uwtable
define dso_local noundef i64 @_ZNK4Luau8TypePath8PathHashclERKNS_7VariantIJNS0_8PropertyENS0_5IndexENS0_9TypeFieldENS0_9PackFieldENS0_9ReductionEEEE(ptr noundef nonnull align 1 dereferenceable(1) %0, ptr noundef nonnull align 8 dereferenceable(48) %1) #5 align 2 {
  %3 = alloca ptr, align 8
  %4 = alloca ptr, align 8
  store ptr %0, ptr %3, align 8, !tbaa !61
  store ptr %1, ptr %4, align 8, !tbaa !50
  %5 = load ptr, ptr %3, align 8
  %6 = load ptr, ptr %4, align 8, !tbaa !50
  %7 = call noundef i64 @_ZN4Luau5visitIRKNS_8TypePath8PathHashEJNS1_8PropertyENS1_5IndexENS1_9TypeFieldENS1_9PackFieldENS1_9ReductionEEEEDaOT_RKNS_7VariantIJDpT0_EEE(ptr noundef nonnull align 1 dereferenceable(1) %5, ptr noundef nonnull align 8 dereferenceable(48) %6)
  ret i64 %7
}

; Function Attrs: mustprogress nounwind uwtable
define linkonce_odr dso_local noundef nonnull align 8 dereferenceable(48) ptr @_ZNK9__gnu_cxx17__normal_iteratorIPKN4Luau7VariantIJNS1_8TypePath8PropertyENS3_5IndexENS3_9TypeFieldENS3_9PackFieldENS3_9ReductionEEEESt6vectorIS9_SaIS9_EEEdeEv(ptr noundef nonnull align 8 dereferenceable(8) %0) #1 comdat align 2 {
  %2 = alloca ptr, align 8
  store ptr %0, ptr %2, align 8, !tbaa !53
  %3 = load ptr, ptr %2, align 8
  %4 = getelementptr inbounds nuw %"class.__gnu_cxx::__normal_iterator.3", ptr %3, i32 0, i32 0
  %5 = load ptr, ptr %4, align 8, !tbaa !57
  ret ptr %5
}

; Function Attrs: inlinehint mustprogress nounwind uwtable
define linkonce_odr dso_local noundef zeroext i1 @_ZN9__gnu_cxxneIPKN4Luau7VariantIJNS1_8TypePath8PropertyENS3_5IndexENS3_9TypeFieldENS3_9PackFieldENS3_9ReductionEEEESt6vectorIS9_SaIS9_EEEEbRKNS_17__normal_iteratorIT_T0_EESK_(ptr noundef nonnull align 8 dereferenceable(8) %0, ptr noundef nonnull align 8 dereferenceable(8) %1) #2 comdat {
  %3 = alloca ptr, align 8
  %4 = alloca ptr, align 8
  store ptr %0, ptr %3, align 8, !tbaa !53
  store ptr %1, ptr %4, align 8, !tbaa !53
  %5 = load ptr, ptr %3, align 8, !tbaa !53
  %6 = call noundef nonnull align 8 dereferenceable(8) ptr @_ZNK9__gnu_cxx17__normal_iteratorIPKN4Luau7VariantIJNS1_8TypePath8PropertyENS3_5IndexENS3_9TypeFieldENS3_9PackFieldENS3_9ReductionEEEESt6vectorIS9_SaIS9_EEE4baseEv(ptr noundef nonnull align 8 dereferenceable(8) %5) #3
  %7 = load ptr, ptr %6, align 8, !tbaa !50
  %8 = load ptr, ptr %4, align 8, !tbaa !53
  %9 = call noundef nonnull align 8 dereferenceable(8) ptr @_ZNK9__gnu_cxx17__normal_iteratorIPKN4Luau7VariantIJNS1_8TypePath8PropertyENS3_5IndexENS3_9TypeFieldENS3_9PackFieldENS3_9ReductionEEEESt6vectorIS9_SaIS9_EEE4baseEv(ptr noundef nonnull align 8 dereferenceable(8) %8) #3
  %10 = load ptr, ptr %9, align 8, !tbaa !50
  %11 = icmp ne ptr %7, %10
  ret i1 %11
}

; Function Attrs: mustprogress nounwind uwtable
define linkonce_odr dso_local ptr @_ZNKSt6vectorIN4Luau7VariantIJNS0_8TypePath8PropertyENS2_5IndexENS2_9TypeFieldENS2_9PackFieldENS2_9ReductionEEEESaIS8_EE3endEv(ptr noundef nonnull align 8 dereferenceable(24) %0) #1 comdat align 2 {
  %2 = alloca %"class.__gnu_cxx::__normal_iterator.3", align 8
  %3 = alloca ptr, align 8
  store ptr %0, ptr %3, align 8, !tbaa !43
  %4 = load ptr, ptr %3, align 8
  %5 = getelementptr inbounds nuw %"struct.std::_Vector_base", ptr %4, i32 0, i32 0
  %6 = getelementptr inbounds nuw %"struct.std::_Vector_base<Luau::Variant<Luau::TypePath::Property, Luau::TypePath::Index, Luau::TypePath::TypeField, Luau::TypePath::PackField, Luau::TypePath::Reduction>, std::allocator<Luau::Variant<Luau::TypePath::Property, Luau::TypePath::Index, Luau::TypePath::TypeField, Luau::TypePath::PackField, Luau::TypePath::Reduction>>>::_Vector_impl_data", ptr %5, i32 0, i32 1
  call void @_ZN9__gnu_cxx17__normal_iteratorIPKN4Luau7VariantIJNS1_8TypePath8PropertyENS3_5IndexENS3_9TypeFieldENS3_9PackFieldENS3_9ReductionEEEESt6vectorIS9_SaIS9_EEEC2ERKSB_(ptr noundef nonnull align 8 dereferenceable(8) %2, ptr noundef nonnull align 8 dereferenceable(8) %6) #3
  %7 = getelementptr inbounds nuw %"class.__gnu_cxx::__normal_iterator.3", ptr %2, i32 0, i32 0
  %8 = load ptr, ptr %7, align 8
  ret ptr %8
}

; Function Attrs: mustprogress nounwind uwtable
define linkonce_odr dso_local ptr @_ZNKSt6vectorIN4Luau7VariantIJNS0_8TypePath8PropertyENS2_5IndexENS2_9TypeFieldENS2_9PackFieldENS2_9ReductionEEEESaIS8_EE5beginEv(ptr noundef nonnull align 8 dereferenceable(24) %0) #1 comdat align 2 {
  %2 = alloca %"class.__gnu_cxx::__normal_iterator.3", align 8
  %3 = alloca ptr, align 8
  store ptr %0, ptr %3, align 8, !tbaa !43
  %4 = load ptr, ptr %3, align 8
  %5 = getelementptr inbounds nuw %"struct.std::_Vector_base", ptr %4, i32 0, i32 0
  %6 = getelementptr inbounds nuw %"struct.std::_Vector_base<Luau::Variant<Luau::TypePath::Property, Luau::TypePath::Index, Luau::TypePath::TypeField, Luau::TypePath::PackField, Luau::TypePath::Reduction>, std::allocator<Luau::Variant<Luau::TypePath::Property, Luau::TypePath::Index, Luau::TypePath::TypeField, Luau::TypePath::PackField, Luau::TypePath::Reduction>>>::_Vector_impl_data", ptr %5, i32 0, i32 0
  call void @_ZN9__gnu_cxx17__normal_iteratorIPKN4Luau7VariantIJNS1_8TypePath8PropertyENS3_5IndexENS3_9TypeFieldENS3_9PackFieldENS3_9ReductionEEEESt6vectorIS9_SaIS9_EEEC2ERKSB_(ptr noundef nonnull align 8 dereferenceable(8) %2, ptr noundef nonnull align 8 dereferenceable(8) %6) #3
  %7 = getelementptr inbounds nuw %"class.__gnu_cxx::__normal_iterator.3", ptr %2, i32 0, i32 0
  %8 = load ptr, ptr %7, align 8
  ret ptr %8
}

; Function Attrs: mustprogress uwtable
define dso_local noundef i64 @_ZNK4Luau8TypePath8PathHashclERKNS0_4PathE(ptr noundef nonnull align 1 dereferenceable(1) %0, ptr noundef nonnull align 8 dereferenceable(24) %1) #5 align 2 {
  %3 = alloca ptr, align 8
  %4 = alloca ptr, align 8
  %5 = alloca i64, align 8
  %6 = alloca ptr, align 8
  %7 = alloca %"class.__gnu_cxx::__normal_iterator.3", align 8
  %8 = alloca %"class.__gnu_cxx::__normal_iterator.3", align 8
  %9 = alloca ptr, align 8
  store ptr %0, ptr %3, align 8, !tbaa !61
  store ptr %1, ptr %4, align 8, !tbaa !4
  %10 = load ptr, ptr %3, align 8
  call void @llvm.lifetime.start.p0(i64 8, ptr %5) #3
  store i64 0, ptr %5, align 8, !tbaa !49
  call void @llvm.lifetime.start.p0(i64 8, ptr %6) #3
  %11 = load ptr, ptr %4, align 8, !tbaa !4
  %12 = getelementptr inbounds nuw %"struct.Luau::TypePath::Path", ptr %11, i32 0, i32 0
  store ptr %12, ptr %6, align 8, !tbaa !43
  call void @llvm.lifetime.start.p0(i64 8, ptr %7) #3
  %13 = load ptr, ptr %6, align 8, !tbaa !43
  %14 = call ptr @_ZNKSt6vectorIN4Luau7VariantIJNS0_8TypePath8PropertyENS2_5IndexENS2_9TypeFieldENS2_9PackFieldENS2_9ReductionEEEESaIS8_EE5beginEv(ptr noundef nonnull align 8 dereferenceable(24) %13) #3
  %15 = getelementptr inbounds nuw %"class.__gnu_cxx::__normal_iterator.3", ptr %7, i32 0, i32 0
  store ptr %14, ptr %15, align 8
  call void @llvm.lifetime.start.p0(i64 8, ptr %8) #3
  %16 = load ptr, ptr %6, align 8, !tbaa !43
  %17 = call ptr @_ZNKSt6vectorIN4Luau7VariantIJNS0_8TypePath8PropertyENS2_5IndexENS2_9TypeFieldENS2_9PackFieldENS2_9ReductionEEEESaIS8_EE3endEv(ptr noundef nonnull align 8 dereferenceable(24) %16) #3
  %18 = getelementptr inbounds nuw %"class.__gnu_cxx::__normal_iterator.3", ptr %8, i32 0, i32 0
  store ptr %17, ptr %18, align 8
  br label %19

19:                                               ; preds = %28, %2
  %20 = call noundef zeroext i1 @_ZN9__gnu_cxxneIPKN4Luau7VariantIJNS1_8TypePath8PropertyENS3_5IndexENS3_9TypeFieldENS3_9PackFieldENS3_9ReductionEEEESt6vectorIS9_SaIS9_EEEEbRKNS_17__normal_iteratorIT_T0_EESK_(ptr noundef nonnull align 8 dereferenceable(8) %7, ptr noundef nonnull align 8 dereferenceable(8) %8) #3
  br i1 %20, label %22, label %21

21:                                               ; preds = %19
  call void @llvm.lifetime.end.p0(i64 8, ptr %8) #3
  call void @llvm.lifetime.end.p0(i64 8, ptr %7) #3
  call void @llvm.lifetime.end.p0(i64 8, ptr %6) #3
  br label %30

22:                                               ; preds = %19
  call void @llvm.lifetime.start.p0(i64 8, ptr %9) #3
  %23 = call noundef nonnull align 8 dereferenceable(48) ptr @_ZNK9__gnu_cxx17__normal_iteratorIPKN4Luau7VariantIJNS1_8TypePath8PropertyENS3_5IndexENS3_9TypeFieldENS3_9PackFieldENS3_9ReductionEEEESt6vectorIS9_SaIS9_EEEdeEv(ptr noundef nonnull align 8 dereferenceable(8) %7) #3
  store ptr %23, ptr %9, align 8, !tbaa !50
  %24 = load ptr, ptr %9, align 8, !tbaa !50
  %25 = call noundef i64 @_ZNK4Luau8TypePath8PathHashclERKNS_7VariantIJNS0_8PropertyENS0_5IndexENS0_9TypeFieldENS0_9PackFieldENS0_9ReductionEEEE(ptr noundef nonnull align 1 dereferenceable(1) %10, ptr noundef nonnull align 8 dereferenceable(48) %24)
  %26 = load i64, ptr %5, align 8, !tbaa !49
  %27 = xor i64 %26, %25
  store i64 %27, ptr %5, align 8, !tbaa !49
  call void @llvm.lifetime.end.p0(i64 8, ptr %9) #3
  br label %28

28:                                               ; preds = %22
  %29 = call noundef nonnull align 8 dereferenceable(8) ptr @_ZN9__gnu_cxx17__normal_iteratorIPKN4Luau7VariantIJNS1_8TypePath8PropertyENS3_5IndexENS3_9TypeFieldENS3_9PackFieldENS3_9ReductionEEEESt6vectorIS9_SaIS9_EEEppEv(ptr noundef nonnull align 8 dereferenceable(8) %7) #3
  br label %19

30:                                               ; preds = %21
  %31 = load i64, ptr %5, align 8, !tbaa !49
  call void @llvm.lifetime.end.p0(i64 8, ptr %5) #3
  ret i64 %31
}