; Function Attrs: mustprogress uwtable
define dso_local noundef i64 @_ZNK4Luau8TypePath8PathHashclERKNS0_4PathE(ptr noundef nonnull align 1 dereferenceable(1) %0, ptr noundef nonnull readonly align 8 captures(none) dereferenceable(24) %1) local_unnamed_addr #8 align 2 {
  %3 = alloca i64, align 8
  %4 = load ptr, ptr %1, align 8, !tbaa !36
  %5 = getelementptr inbounds nuw i8, ptr %1, i64 8
  %6 = load ptr, ptr %5, align 8, !tbaa !36
  %.not9 = icmp eq ptr %4, %6
  br i1 %.not9, label %._crit_edge, label %.lr.ph

._crit_edge:                                      ; preds = %.lr.ph, %2
  %.0.lcssa = phi i64 [ 0, %2 ], [ %13, %.lr.ph ]
  ret i64 %.0.lcssa

.lr.ph:                                           ; preds = %2, %.lr.ph
  %.011 = phi i64 [ %13, %.lr.ph ], [ 0, %2 ]
  %.sroa.06.010 = phi ptr [ %14, %.lr.ph ], [ %4, %2 ]
  call void @llvm.lifetime.start.p0(i64 8, ptr nonnull %3) #29
  %7 = load i32, ptr %.sroa.06.010, align 8, !tbaa !11
  %8 = sext i32 %7 to i64
  %9 = getelementptr inbounds [5 x ptr], ptr @_ZZN4Luau5visitIRKNS_8TypePath8PathHashEJNS1_8PropertyENS1_5IndexENS1_9TypeFieldENS1_9PackFieldENS1_9ReductionEEEEDaOT_RKNS_7VariantIJDpT0_EEEE10tableVisit_0, i64 0, i64 %8
  %10 = load ptr, ptr %9, align 8, !tbaa !14
  %11 = getelementptr inbounds nuw i8, ptr %.sroa.06.010, i64 8
  call void %10(ptr noundef nonnull align 1 dereferenceable(1) %0, ptr noundef nonnull align 8 dereferenceable(8) %3, ptr noundef nonnull %11)
  %12 = load i64, ptr %3, align 8, !tbaa !47
  call void @llvm.lifetime.end.p0(i64 8, ptr nonnull %3) #29
  %13 = xor i64 %12, %.011
  %14 = getelementptr inbounds nuw i8, ptr %.sroa.06.010, i64 48
  %.not = icmp eq ptr %14, %6
  br i1 %.not, label %._crit_edge, label %.lr.ph
}